target datalayout = "e-m:e-p270:32:32-p271:32:32-p272:64:64-i64:64-i128:128-f80:128-n8:16:32:64-S128"
target triple = "x86_64-pc-linux-gnu"

; Function Attrs: mustprogress uwtable
define noundef i32 @_ZNK15FilterColorProc16getPreConditionsEPK7QAction(ptr noundef nonnull align 8 dereferenceable(80) %0, ptr noundef %1) unnamed_addr #3 align 2 {
  %3 = alloca i32, align 4
  %4 = alloca ptr, align 8
  %5 = alloca ptr, align 8
  store ptr %0, ptr %4, align 8
  store ptr %1, ptr %5, align 8
  %6 = load ptr, ptr %4, align 8
  %7 = getelementptr inbounds i8, ptr %6, i64 16
  %8 = load ptr, ptr %5, align 8
  %9 = load ptr, ptr %7, align 8
  %10 = getelementptr inbounds ptr, ptr %9, i64 18
  %11 = load ptr, ptr %10, align 8
  %12 = call noundef i32 %11(ptr noundef nonnull align 8 dereferenceable(64) %7, ptr noundef %8)
  switch i32 %12, label %22 [
    i32 0, label %13
    i32 6, label %13
    i32 12, label %13
    i32 10, label %13
    i32 11, label %13
    i32 24, label %13
    i32 1, label %14
    i32 2, label %14
    i32 5, label %14
    i32 9, label %14
    i32 7, label %14
    i32 8, label %14
    i32 4, label %14
    i32 19, label %14
    i32 23, label %14
    i32 18, label %15
    i32 25, label %15
    i32 26, label %15
    i32 17, label %15
    i32 14, label %16
    i32 13, label %16
    i32 15, label %16
    i32 16, label %17
    i32 21, label %18
    i32 20, label %18
    i32 22, label %19
    i32 27, label %20
    i32 28, label %21
  ]

13:                                               ; preds = %2, %2, %2, %2, %2, %2
  store i32 0, ptr %3, align 4
  br label %24

14:                                               ; preds = %2, %2, %2, %2, %2, %2, %2, %2, %2
  store i32 8, ptr %3, align 4
  br label %24

15:                                               ; preds = %2, %2, %2, %2
  store i32 524288, ptr %3, align 4
  br label %24

16:                                               ; preds = %2, %2, %2
  store i32 16, ptr %3, align 4
  br label %24

17:                                               ; preds = %2
  store i32 65536, ptr %3, align 4
  br label %24

18:                                               ; preds = %2, %2
  store i32 32768, ptr %3, align 4
  br label %24

19:                                               ; preds = %2
  store i32 0, ptr %3, align 4
  br label %24

20:                                               ; preds = %2
  store i32 16, ptr %3, align 4
  br label %24

21:                                               ; preds = %2
  store i32 65536, ptr %3, align 4
  br label %24

22:                                               ; preds = %2
  br label %23

23:                                               ; preds = %22
  store i32 0, ptr %3, align 4
  br label %24

24:                                               ; preds = %23, %21, %20, %19, %18, %17, %16, %15, %14, %13
  %25 = load i32, ptr %3, align 4
  ret i32 %25
}

; Function Attrs: uwtable
define noundef i32 @_ZThn16_NK15FilterColorProc16getPreConditionsEPK7QAction(ptr noundef %0, ptr noundef %1) unnamed_addr #0 align 2 {
  %3 = alloca ptr, align 8
  %4 = alloca ptr, align 8
  store ptr %0, ptr %3, align 8
  store ptr %1, ptr %4, align 8
  %5 = load ptr, ptr %3, align 8
  %6 = getelementptr inbounds i8, ptr %5, i64 -16
  %7 = load ptr, ptr %4, align 8
  %8 = tail call noundef i32 @_ZNK15FilterColorProc16getPreConditionsEPK7QAction(ptr noundef nonnull align 8 dereferenceable(80) %6, ptr noundef %7)
  ret i32 %8
}